(lp0
(dp1
S'rating'
p2
VPG-13
p3
sS'runtime'
p4
I142
sS'title'
p5
VMarvel's The Avengers
p6
sS'release_date'
p7
cdatetime
datetime
p8
(S'\x07\xdc\x05\x04\x00\x00\x00\x00\x00\x00'
p9
tp10
Rp11
sS'worldwide_gross'
p12
I1518594910
sS'foreign_gross'
p13
I895237000
sS'production_budget'
p14
F220.0
sS'distributor'
p15
VBuena Vista
p16
sS'imdb_budget'
p17
I220000000
sS'domestic_gross'
p18
I623357910
sa(dp19
g2
VPG-13
p20
sg4
I165
sg5
VThe Dark Knight Rises
p21
sg7
g8
(S'\x07\xdc\x07\x14\x00\x00\x00\x00\x00\x00'
p22
tp23
Rp24
sg12
I1084439099
sg13
I636300000
sg14
F250.0
sg15
VWarner Bros.
p25
sg17
I250000000
sg18
I448139099
sa(dp26
g2
VPG-13
p27
sg4
I142
sg5
VThe Hunger Games
p28
sg7
g8
(S'\x07\xdc\x03\x17\x00\x00\x00\x00\x00\x00'
p29
tp30
Rp31
sg12
I691247768
sg13
I283237076
sg14
F78.0
sg15
VLionsgate
p32
sg17
I78000000
sg18
I408010692
sa(dp33
g2
VPG-13
p34
sg4
I143
sg5
VSkyfall
p35
sg7
g8
(S'\x07\xdc\x0b\t\x00\x00\x00\x00\x00\x00'
p36
tp37
Rp38
sg12
I1108561013
sg13
I804200736
sg14
F200.0
sg15
VSony / Columbia
p39
sg17
I200000000
sg18
I304360277
sa(dp40
g2
VPG-13
p41
sg4
I166
sg5
VThe Hobbit: An Unexpected Journey
p42
sg7
g8
(S'\x07\xdc\x0c\x0e\x00\x00\x00\x00\x00\x00'
p43
tp44
Rp45
sg12
I1017003568
sg13
I714000000
sg14
F0.0
sg15
VWarner Bros.
p46
sg17
I180000000
sg18
I303003568
sa(dp47
g2
VPG-13
p48
sg4
I116
sg5
VThe Twilight Saga: Breaking Dawn Part 2
p49
sg7
g8
(S'\x07\xdc\x0b\x10\x00\x00\x00\x00\x00\x00'
p50
tp51
Rp52
sg12
I829685377
sg13
I537360640
sg14
F120.0
sg15
VLionsgate/Summit
p53
sg17
I0
sg18
I292324737
sa(dp54
g2
VPG-13
p55
sg4
I136
sg5
VThe Amazing Spider-Man
p56
sg7
g8
(S'\x07\xdc\x07\x03\x00\x00\x00\x00\x00\x00'
p57
tp58
Rp59
sg12
I757930663
sg13
I495900000
sg14
F230.0
sg15
VSony / Columbia
p60
sg17
I230000000
sg18
I262030663
sa(dp61
g2
VPG
p62
sg4
I100
sg5
VBrave
p63
sg7
g8
(S'\x07\xdc\x06\x16\x00\x00\x00\x00\x00\x00'
p64
tp65
Rp66
sg12
I538983207
sg13
I301700000
sg14
F185.0
sg15
VBuena Vista
p67
sg17
I185000000
sg18
I237283207
sa(dp68
g2
VR
p69
sg4
I106
sg5
VTed
p70
sg7
g8
(S'\x07\xdc\x06\x1d\x00\x00\x00\x00\x00\x00'
p71
tp72
Rp73
sg12
I549368315
sg13
I330552828
sg14
F50.0
sg15
VUniversal
p74
sg17
I50000000
sg18
I218815487
sa(dp75
g2
VPG
p76
sg4
I93
sg5
VMadagascar 3: Europe's Most Wanted
p77
sg7
g8
(S'\x07\xdc\x06\x08\x00\x00\x00\x00\x00\x00'
p78
tp79
Rp80
sg12
I746921274
sg13
I530529792
sg14
F145.0
sg15
VParamount (DreamWorks)
p81
sg17
I145000000
sg18
I216391482
sa(dp82
g2
VPG
p83
sg4
I95
sg5
VDr. Seuss' The Lorax
p84
sg7
g8
(S'\x07\xdc\x03\x02\x00\x00\x00\x00\x00\x00'
p85
tp86
Rp87
sg12
I348840316
sg13
I134809816
sg14
F70.0
sg15
VUniversal
p88
sg17
I70000000
sg18
I214030500
sa(dp89
g2
VPG
p90
sg4
I108
sg5
VWreck-It Ralph
p91
sg7
g8
(S'\x07\xdc\x0b\x02\x00\x00\x00\x00\x00\x00'
p92
tp93
Rp94
sg12
I471222889
sg13
I281800000
sg14
F165.0
sg15
VBuena Vista
p95
sg17
I165000000
sg18
I189422889
sa(dp96
g2
VPG-13
p97
sg4
I145
sg5
VLincoln
p98
sg7
g8
(S'\x07\xdc\x0b\t\x00\x00\x00\x00\x00\x00'
p99
tp100
Rp101
sg12
I275293450
sg13
I93085477
sg14
F65.0
sg15
VBuena Vista
p102
sg17
I65000000
sg18
I182207973
sa(dp103
g2
VPG-13
p104
sg4
I106
sg5
VMIB 3
p105
sg7
g8
(S'\x07\xdc\x05\x19\x00\x00\x00\x00\x00\x00'
p106
tp107
Rp108
sg12
I624026776
sg13
I445005922
sg14
F225.0
sg15
VSony / Columbia
p109
sg17
I0
sg18
I179020854
sa(dp110
g2
VR
p111
sg4
I165
sg5
VDjango Unchained
p112
sg7
g8
(S'\x07\xdc\x0c\x19\x00\x00\x00\x00\x00\x00'
p113
tp114
Rp115
sg12
I425368238
sg13
I262562804
sg14
F100.0
sg15
VWeinstein Company
p116
sg17
I100000000
sg18
I162805434
sa(dp117
g2
VPG
p118
sg4
I94
sg5
VIce Age: Continental Drift
p119
sg7
g8
(S'\x07\xdc\x07\r\x00\x00\x00\x00\x00\x00'
p120
tp121
Rp122
sg12
I877244782
sg13
I715922939
sg14
F95.0
sg15
VFox
p123
sg17
I95000000
sg18
I161321843
sa(dp124
g2
VPG-13
p125
sg4
I127
sg5
VSnow White and the Huntsman
p126
sg7
g8
(S'\x07\xdc\x06\x01\x00\x00\x00\x00\x00\x00'
p127
tp128
Rp129
sg12
I396592829
sg13
I241260448
sg14
F170.0
sg15
VUniversal
p130
sg17
I170000000
sg18
I155332381
sa(dp131
g2
VPG-13
p132
sg4
I157
sg5
VLes Miserables
p133
sg7
g8
(S'\x07\xdc\x0c\x19\x00\x00\x00\x00\x00\x00'
p134
tp135
Rp136
sg12
I441809770
sg13
I293000000
sg14
F61.0
sg15
VUniversal
p137
sg17
I61000000
sg18
I148809770
sa(dp138
g2
VPG
p139
sg4
I91
sg5
VHotel Transylvania
p140
sg7
g8
(S'\x07\xdc\t\x1c\x00\x00\x00\x00\x00\x00'
p141
tp142
Rp143
sg12
I358375603
sg13
I210062555
sg14
F85.0
sg15
VSony / Columbia
p144
sg17
I85000000
sg18
I148313048
sa(dp145
g2
VPG-13
p146
sg4
I91
sg5
VTaken 2
p147
sg7
g8
(S'\x07\xdc\n\x05\x00\x00\x00\x00\x00\x00'
p148
tp149
Rp150
sg12
I376141306
sg13
I236287019
sg14
F45.0
sg15
VFox
p151
sg17
I45000000
sg18
I139854287
sa(dp152
g2
VR
p153
sg4
I109
sg5
V21 Jump Street
p154
sg7
g8
(S'\x07\xdc\x03\x10\x00\x00\x00\x00\x00\x00'
p155
tp156
Rp157
sg12
I201585328
sg13
I63137661
sg14
F42.0
sg15
VSony / Columbia
p158
sg17
I42000000
sg18
I138447667
sa(dp159
g2
VR
p160
sg4
I120
sg5
VArgo
p161
sg7
g8
(S'\x07\xdc\n\x0c\x00\x00\x00\x00\x00\x00'
p162
tp163
Rp164
sg12
I232325503
sg13
I96300000
sg14
F44.5
sg15
VWarner Bros.
p165
sg17
I44500000
sg18
I136025503
sa(dp166
g2
VR
p167
sg4
I122
sg5
VSilver Linings Playbook
p168
sg7
g8
(S'\x07\xdc\x0b\x10\x00\x00\x00\x00\x00\x00'
p169
tp170
Rp171
sg12
I236412453
sg13
I104319495
sg14
F21.0
sg15
VWeinstein Company
p172
sg17
I21000000
sg18
I132092958
sa(dp173
g2
VR
p174
sg4
I124
sg5
VPrometheus
p175
sg7
g8
(S'\x07\xdc\x06\x08\x00\x00\x00\x00\x00\x00'
p176
tp177
Rp178
sg12
I403354469
sg13
I276877385
sg14
F130.0
sg15
VFox
p179
sg17
I130000000
sg18
I126477084
sa(dp180
g2
VR
p181
sg4
I117
sg5
VSafe House
p182
sg7
g8
(S'\x07\xdc\x02\n\x00\x00\x00\x00\x00\x00'
p183
tp184
Rp185
sg12
I208076205
sg13
I81702771
sg14
F85.0
sg15
VUniversal
p186
sg17
I85000000
sg18
I126373434
sa(dp187
g2
VPG-13
p188
sg4
I104
sg5
VThe Vow
p189
sg7
g8
(S'\x07\xdc\x02\n\x00\x00\x00\x00\x00\x00'
p190
tp191
Rp192
sg12
I196114570
sg13
I71100540
sg14
F30.0
sg15
VSony / Screen Gems
p193
sg17
I30000000
sg18
I125014030
sa(dp194
g2
VPG
p195
sg4
I126
sg5
VLife of Pi
p196
sg7
g8
(S'\x07\xdc\x0b\x15\x00\x00\x00\x00\x00\x00'
p197
tp198
Rp199
sg12
I609016565
sg13
I484029542
sg14
F120.0
sg15
VFox
p200
sg17
I120000000
sg18
I124987023
sa(dp201
g2
VR
p202
sg4
I110
sg5
VMagic Mike
p203
sg7
g8
(S'\x07\xdc\x06\x1d\x00\x00\x00\x00\x00\x00'
p204
tp205
Rp206
sg12
I167221571
sg13
I53500000
sg14
F7.0
sg15
VWarner Bros.
p207
sg17
I7000000
sg18
I113721571
sa(dp208
g2
VPG-13
p209
sg4
I135
sg5
VThe Bourne Legacy
p210
sg7
g8
(S'\x07\xdc\x08\n\x00\x00\x00\x00\x00\x00'
p211
tp212
Rp213
sg12
I276144750
sg13
I162940880
sg14
F125.0
sg15
VUniversal
p214
sg17
I125000000
sg18
I113203870
sa(dp215
g2
VPG
p216
sg4
I94
sg5
VJourney 2: The Mysterious Island
p217
sg7
g8
(S'\x07\xdc\x02\n\x00\x00\x00\x00\x00\x00'
p218
tp219
Rp220
sg12
I335260290
sg13
I231400000
sg14
F79.0
sg15
VWarner Bros.
p221
sg17
I79000000
sg18
I103860290
sa(dp222
g2
VPG
p223
sg4
I97
sg5
VRise of the Guardians
p224
sg7
g8
(S'\x07\xdc\x0b\x15\x00\x00\x00\x00\x00\x00'
p225
tp226
Rp227
sg12
I306941670
sg13
I203528912
sg14
F145.0
sg15
VParamount (DreamWorks)
p228
sg17
I145000000
sg18
I103412758
sa(dp229
g2
VR
p230
sg4
I157
sg5
VZero Dark Thirty
p231
sg7
g8
(S'\x07\xdc\x0c\x13\x00\x00\x00\x00\x00\x00'
p232
tp233
Rp234
sg12
I132820716
sg13
I37100000
sg14
F40.0
sg15
VSony / Columbia
p235
sg17
I40000000
sg18
I95720716
sa(dp236
g2
VR
p237
sg4
I139
sg5
VFlight
p238
sg7
g8
(S'\x07\xdc\x0b\x02\x00\x00\x00\x00\x00\x00'
p239
tp240
Rp241
sg12
I161772375
sg13
I68000000
sg14
F31.0
sg15
VParamount
p242
sg17
I31000000
sg18
I93772375
sa(dp243
g2
VPG-13
p244
sg4
I122
sg5
VThink Like a Man
p245
sg7
g8
(S'\x07\xdc\x04\x14\x00\x00\x00\x00\x00\x00'
p246
tp247
Rp248
sg12
I96070507
sg13
I4523302
sg14
F12.0
sg15
VSony / Screen Gems
p249
sg17
I12000000
sg18
I91547205
sa(dp250
g2
VR
p251
sg4
I97
sg5
VThe Campaign
p252
sg7
g8
(S'\x07\xdc\x08\n\x00\x00\x00\x00\x00\x00'
p253
tp254
Rp255
sg12
I104907746
sg13
I18000000
sg14
F0.0
sg15
VWarner Bros.
p256
sg17
I0
sg18
I86907746
sa(dp257
g2
VR
p258
sg4
I102
sg5
VThe Expendables 2
p259
sg7
g8
(S'\x07\xdc\x08\x11\x00\x00\x00\x00\x00\x00'
p260
tp261
Rp262
sg12
I305428192
sg13
I220400000
sg14
F100.0
sg15
VLionsgate
p263
sg17
I92000000
sg18
I85028192
sa(dp264
g2
VPG-13
p265
sg4
I99
sg5
VWrath of the Titans
p266
sg7
g8
(S'\x07\xdc\x03\x1e\x00\x00\x00\x00\x00\x00'
p267
tp268
Rp269
sg12
I305270083
sg13
I221600000
sg14
F150.0
sg15
VWarner Bros.
p270
sg17
I150000000
sg18
I83670083
sa(dp271
g2
VPG-13
p272
sg4
I130
sg5
VJack Reacher
p273
sg7
g8
(S'\x07\xdc\x0c\x15\x00\x00\x00\x00\x00\x00'
p274
tp275
Rp276
sg12
I218340595
sg13
I138269859
sg14
F60.0
sg15
VParamount
p277
sg17
I60000000
sg18
I80070736
sa(dp278
g2
VPG-13
p279
sg4
I113
sg5
VDark Shadows
p280
sg7
g8
(S'\x07\xdc\x05\x0b\x00\x00\x00\x00\x00\x00'
p281
tp282
Rp283
sg12
I245527149
sg13
I165800000
sg14
F150.0
sg15
VWarner Bros.
p284
sg17
I100000000
sg18
I79727149
sa(dp285
g2
VPG
p286
sg4
I104
sg5
VParental Guidance
p287
sg7
g8
(S'\x07\xdc\x0c\x19\x00\x00\x00\x00\x00\x00'
p288
tp289
Rp290
sg12
I119772232
sg13
I42504936
sg14
F25.0
sg15
VFox
p291
sg17
I25000000
sg18
I77267296
sa(dp292
g2
VPG-13
p293
sg4
I132
sg5
VJohn Carter
p294
sg7
g8
(S'\x07\xdc\x03\t\x00\x00\x00\x00\x00\x00'
p295
tp296
Rp297
sg12
I284139100
sg13
I211061000
sg14
F250.0
sg15
VBuena Vista
p298
sg17
I263700000
sg18
I73078100
sa(dp299
g2
VR
p300
sg4
I111
sg5
VAct of Valor
p301
sg7
g8
(S'\x07\xdc\x02\x18\x00\x00\x00\x00\x00\x00'
p302
tp303
Rp304
sg12
I81272766
sg13
I11259919
sg14
F12.0
sg15
VRelativity
p305
sg17
I12000000
sg18
I70012847
sa(dp306
g2
VR
p307
sg4
I133
sg5
VThis Is 40
p308
sg7
g8
(S'\x07\xdc\x0c\x15\x00\x00\x00\x00\x00\x00'
p309
tp310
Rp311
sg12
I88058786
sg13
I20514281
sg14
F35.0
sg15
VUniversal
p312
sg17
I35000000
sg18
I67544505
sa(dp313
g2
VR
p314
sg4
I110
sg5
VContraband
p315
sg7
g8
(S'\x07\xdc\x01\r\x00\x00\x00\x00\x00\x00'
p316
tp317
Rp318
sg12
I96262212
sg13
I29734212
sg14
F25.0
sg15
VUniversal
p319
sg17
I25000000
sg18
I66528000
sa(dp320
g2
VR
p321
sg4
I118
sg5
VLooper
p322
sg7
g8
(S'\x07\xdc\t\x1c\x00\x00\x00\x00\x00\x00'
p323
tp324
Rp325
sg12
I176506819
sg13
I110020614
sg14
F30.0
sg15
VTriStar
p326
sg17
I30000000
sg18
I66486205
sa(dp327
g2
VPG-13
p328
sg4
I114
sg5
VTyler Perry's Madea's Witness Protection
p329
sg7
g8
(S'\x07\xdc\x06\x1d\x00\x00\x00\x00\x00\x00'
p330
tp331
Rp332
sg12
I66899242
sg13
I1246000
sg14
F20.0
sg15
VLionsgate
p333
sg17
I20000000
sg18
I65653242
sa(dp334
g2
VPG-13
p335
sg4
I131
sg5
VBattleship
p336
sg7
g8
(S'\x07\xdc\x05\x12\x00\x00\x00\x00\x00\x00'
p337
tp338
Rp339
sg12
I303025485
sg13
I237602860
sg14
F209.0
sg15
VUniversal
p340
sg17
I209000000
sg18
I65422625
sa(dp341
g2
VPG-13
p342
sg4
I112
sg5
VPitch Perfect
p343
sg7
g8
(S'\x07\xdc\t\x1c\x00\x00\x00\x00\x00\x00'
p344
tp345
Rp346
sg12
I115350426
sg13
I50349333
sg14
F17.0
sg15
VUniversal
p347
sg17
I17000000
sg18
I65001093
sa(dp348
g2
VPG
p349
sg4
I106
sg5
VMirror Mirror
p350
sg7
g8
(S'\x07\xdc\x03\x1e\x00\x00\x00\x00\x00\x00'
p351
tp352
Rp353
sg12
I183018522
sg13
I118083355
sg14
F85.0
sg15
VRelativity
p354
sg17
I85000000
sg18
I64935167
sa(dp355
g2
VPG-13
p356
sg4
I83
sg5
VChronicle
p357
sg7
g8
(S'\x07\xdc\x02\x03\x00\x00\x00\x00\x00\x00'
p358
tp359
Rp360
sg12
I126636097
sg13
I62060922
sg14
F12.0
sg15
VFox
p361
sg17
I12000000
sg18
I64575175
sa(dp362
g2
VPG-13
p363
sg4
I121
sg5
VHope Springs
p364
sg7
g8
(S'\x07\xdc\x08\x08\x00\x00\x00\x00\x00\x00'
p365
tp366
Rp367
sg12
I114281051
sg13
I50745040
sg14
F0.0
sg15
VSony / Columbia
p368
sg17
I30000000
sg18
I63536011
sa(dp369
g2
VR
p370
sg4
I88
sg5
VUnderworld Awakening
p371
sg7
g8
(S'\x07\xdc\x01\x14\x00\x00\x00\x00\x00\x00'
p372
tp373
Rp374
sg12
I160112671
sg13
I97791632
sg14
F70.0
sg15
VSony / Screen Gems
p375
sg17
I70000000
sg18
I62321039
sa(dp376
g2
VPG-13
p377
sg4
I101
sg5
VThe Lucky One
p378
sg7
g8
(S'\x07\xdc\x04\x14\x00\x00\x00\x00\x00\x00'
p379
tp380
Rp381
sg12
I99357138
sg13
I38900000
sg14
F0.0
sg15
VWarner Bros.
p382
sg17
I25000000
sg18
I60457138
sa(dp383
g2
VR
p384
sg4
I83
sg5
VThe Dictator
p385
sg7
g8
(S'\x07\xdc\x05\x10\x00\x00\x00\x00\x00\x00'
p386
tp387
Rp388
sg12
I179379533
sg13
I119729311
sg14
F65.0
sg15
VParamount
p389
sg17
I65000000
sg18
I59650222
sa(dp390
g2
VPG-13
p391
sg4
I121
sg5
VTotal Recall
p392
sg7
g8
(S'\x07\xdc\x08\x03\x00\x00\x00\x00\x00\x00'
p393
tp394
Rp395
sg12
I198467168
sg13
I139589199
sg14
F125.0
sg15
VSony / Columbia
p396
sg17
I65000000
sg18
I58877969
sa(dp397
g2
VPG-13
p398
sg4
I194
sg5
VTitanic 3D
p399
sg7
g8
(S'\x07\xdc\x04\x04\x00\x00\x00\x00\x00\x00'
p400
tp401
Rp402
sg12
I944338958
sg13
I886454844
sg14
F18.0
sg15
VParamount
p403
sg17
I0
sg18
I57884114
sa(dp404
g2
VR
p405
sg4
I113
sg5
VAmerican Reunion
p406
sg7
g8
(S'\x07\xdc\x04\x06\x00\x00\x00\x00\x00\x00'
p407
tp408
Rp409
sg12
I234989584
sg13
I177978063
sg14
F50.0
sg15
VUniversal
p410
sg17
I50000000
sg18
I57011521
sa(dp411
g2
VPG
p412
sg4
I93
sg5
VParaNorman
p413
sg7
g8
(S'\x07\xdc\x08\x11\x00\x00\x00\x00\x00\x00'
p414
tp415
Rp416
sg12
I107139399
sg13
I51136348
sg14
F60.0
sg15
VFocus Features
p417
sg17
I60000000
sg18
I56003051
sa(dp418
g2
VPG-13
p419
sg4
I97
sg5
VThis Means War
p420
sg7
g8
(S'\x07\xdc\x02\x11\x00\x00\x00\x00\x00\x00'
p421
tp422
Rp423
sg12
I156491279
sg13
I101730488
sg14
F65.0
sg15
VFox
p424
sg17
I65000000
sg18
I54760791
sa(dp425
g2
VR
p426
sg4
I88
sg5
VProject X
p427
sg7
g8
(S'\x07\xdc\x03\x02\x00\x00\x00\x00\x00\x00'
p428
tp429
Rp430
sg12
I102731865
sg13
I48000000
sg14
F0.0
sg15
VWarner Bros.
p431
sg17
I12000000
sg18
I54731865
sa(dp432
g2
VPG-13
p433
sg4
I95
sg5
VThe Woman in Black
p434
sg7
g8
(S'\x07\xdc\x02\x03\x00\x00\x00\x00\x00\x00'
p435
tp436
Rp437
sg12
I127730736
sg13
I73397446
sg14
F0.0
sg15
VCBS Films
p438
sg17
I17000000
sg18
I54333290
sa(dp439
g2
VR
p440
sg4
I95
sg5
VParanormal Activity 4
p441
sg7
g8
(S'\x07\xdc\n\x13\x00\x00\x00\x00\x00\x00'
p442
tp443
Rp444
sg12
I142817992
sg13
I88917657
sg14
F5.0
sg15
VParamount
p445
sg17
I5000000
sg18
I53900335
sa(dp446
g2
VR
p447
sg4
I87
sg5
VThe Devil Inside
p448
sg7
g8
(S'\x07\xdc\x01\x06\x00\x00\x00\x00\x00\x00'
p449
tp450
Rp451
sg12
I101758490
sg13
I48496546
sg14
F1000000.0
sg15
VParamount
p452
sg17
I1000000
sg18
I53261944
sa(dp453
g2
VPG
p454
sg4
I100
sg5
VThe Odd Life of Timothy Green
p455
sg7
g8
(S'\x07\xdc\x08\x0f\x00\x00\x00\x00\x00\x00'
p456
tp457
Rp458
sg12
I51854875
sg13
I0
sg14
F0.0
sg15
VBuena Vista
p459
sg17
I0
sg18
I51854875
sa(dp460
g2
VPG-13
p461
sg4
I95
sg5
VGhost Rider: Spirit of Vengeance
p462
sg7
g8
(S'\x07\xdc\x02\x11\x00\x00\x00\x00\x00\x00'
p463
tp464
Rp465
sg12
I132563930
sg13
I80789928
sg14
F57.0
sg15
VSony / Columbia
p466
sg17
I64000000
sg18
I51774002
sa(dp467
g2
VR
p468
sg4
I117
sg5
VThe Grey
p469
sg7
g8
(S'\x07\xdc\x01\x1b\x00\x00\x00\x00\x00\x00'
p470
tp471
Rp472
sg12
I77278331
sg13
I25698095
sg14
F25.0
sg15
VOpen Road Films
p473
sg17
I25000000
sg18
I51580236
sa(dp474
g2
VPG-13
p475
sg4
I120
sg5
VRed Tails
p476
sg7
g8
(S'\x07\xdc\x01\x14\x00\x00\x00\x00\x00\x00'
p477
tp478
Rp479
sg12
I50365377
sg13
I489000
sg14
F58.0
sg15
VFox
p480
sg17
I58000000
sg18
I49876377
sa(dp481
g2
VPG-13
p482
sg4
I91
sg5
VThe Possession
p483
sg7
g8
(S'\x07\xdc\x08\x1f\x00\x00\x00\x00\x00\x00'
p484
tp485
Rp486
sg12
I85446075
sg13
I36315921
sg14
F14.0
sg15
VLionsgate
p487
sg17
I14000000
sg18
I49130154
sa(dp488
g2
VPG
p489
sg4
I94
sg5
VDiary of a Wimpy Kid: Dog Days
p490
sg7
g8
(S'\x07\xdc\x08\x03\x00\x00\x00\x00\x00\x00'
p491
tp492
Rp493
sg12
I77112176
sg13
I28103514
sg14
F22.0
sg15
VFox
p494
sg17
I22000000
sg18
I49008662
sa(dp495
g2
VR
p496
sg4
I110
sg5
VSinister
p497
sg7
g8
(S'\x07\xdc\n\x0c\x00\x00\x00\x00\x00\x00'
p498
tp499
Rp500
sg12
I77712439
sg13
I29625536
sg14
F3.0
sg15
VLionsgate/Summit
p501
sg17
I3000000
sg18
I48086903
sa(dp502
g2
VG
p503
sg4
I84
sg5
VBeauty and the Beast
p504
sg7
g8
(S'\x07\xdc\x01\r\x00\x00\x00\x00\x00\x00'
p505
tp506
Rp507
sg12
I233377676
sg13
I185760609
sg14
F0.0
sg15
VBuena Vista
p508
sg17
I0
sg18
I47617067
sa(dp509
g2
VR
p510
sg4
I130
sg5
VSavages
p511
sg7
g8
(S'\x07\xdc\x07\x06\x00\x00\x00\x00\x00\x00'
p512
tp513
Rp514
sg12
I82966152
sg13
I35584084
sg14
F45.0
sg15
VUniversal
p515
sg17
I45000000
sg18
I47382068
sa(dp516
g2
VPG-13
p517
sg4
I118
sg5
VThe Best Exotic Marigold Hotel
p518
sg7
g8
(S'\x07\xdc\x05\x04\x00\x00\x00\x00\x00\x00'
p519
tp520
Rp521
sg12
I136836156
sg13
I90424115
sg14
F10.0
sg15
VFox Searchlight
p522
sg17
I10000000
sg18
I46412041
sa(dp523
g2
VPG-13
p524
sg4
I93
sg5
VMoonrise Kingdom
p525
sg7
g8
(S'\x07\xdc\x05\x19\x00\x00\x00\x00\x00\x00'
p526
tp527
Rp528
sg12
I68263166
sg13
I22750700
sg14
F16.0
sg15
VFocus Features
p529
sg17
I16000000
sg18
I45512466
sa(dp530
g2
VPG
p531
sg4
I105
sg5
VHere Comes the Boom
p532
sg7
g8
(S'\x07\xdc\n\x0c\x00\x00\x00\x00\x00\x00'
p533
tp534
Rp535
sg12
I73100172
sg13
I27809854
sg14
F0.0
sg15
VSony / Columbia
p536
sg17
I0
sg18
I45290318
sa(dp537
g2
VPG-13
p538
sg4
I93
sg5
VRed Dawn
p539
sg7
g8
(S'\x07\xdc\x0b\x15\x00\x00\x00\x00\x00\x00'
p540
tp541
Rp542
sg12
I44806783
sg13
I0
sg14
F65.0
sg15
VFilmDistrict
p543
sg17
I65000000
sg18
I44806783
sa(dp544
g2
VPG
p545
sg4
I92
sg5
VThe Three Stooges
p546
sg7
g8
(S'\x07\xdc\x04\r\x00\x00\x00\x00\x00\x00'
p547
tp548
Rp549
sg12
I54819301
sg13
I10481077
sg14
F30.0
sg15
VFox
p550
sg17
I0
sg18
I44338224
sa(dp551
g2
VPG
p552
sg4
I133
sg5
VStar Wars: Episode I - The Phantom Menace
p553
sg7
g8
(S'\x07\xdc\x02\n\x00\x00\x00\x00\x00\x00'
p554
tp555
Rp556
sg12
I533827888
sg13
I490371506
sg14
F0.0
sg15
VFox
p557
sg17
I115000000
sg18
I43456382
sa(dp558
g2
VR
p559
sg4
I95
sg5
VResident Evil: Retribution
p560
sg7
g8
(S'\x07\xdc\t\x0e\x00\x00\x00\x00\x00\x00'
p561
tp562
Rp563
sg12
I240159255
sg13
I197813724
sg14
F65.0
sg15
VSony / Screen Gems
p564
sg17
I65000000
sg18
I42345531
sa(dp565
g2
VR
p566
sg4
I95
sg5
VThe Cabin in the Woods
p567
sg7
g8
(S'\x07\xdc\x04\r\x00\x00\x00\x00\x00\x00'
p568
tp569
Rp570
sg12
I66486080
sg13
I24412803
sg14
F0.0
sg15
VLionsgate
p571
sg17
I30000000
sg18
I42073277
sa(dp572
g2
VPG-13
p573
sg4
I110
sg5
VWhat to Expect When You're Expecting
p574
sg7
g8
(S'\x07\xdc\x05\x12\x00\x00\x00\x00\x00\x00'
p575
tp576
Rp577
sg12
I84384002
sg13
I43231799
sg14
F40.0
sg15
VLionsgate
p578
sg17
I40000000
sg18
I41152203
sa(dp579
g2
VG
p580
sg4
I104
sg5
VFinding Nemo
p581
sg7
g8
(S'\x07\xdc\t\x0e\x00\x00\x00\x00\x00\x00'
p582
tp583
Rp584
sg12
I411843261
sg13
I370714978
sg14
F0.0
sg15
VBuena Vista
p585
sg17
I94000000
sg18
I41128283
sa(dp586
g2
VR
p587
sg4
I109
sg5
VEnd of Watch
p588
sg7
g8
(S'\x07\xdc\t\x15\x00\x00\x00\x00\x00\x00'
p589
tp590
Rp591
sg12
I48126384
sg13
I7123013
sg14
F7.0
sg15
VOpen Road Films
p592
sg17
I7000000
sg18
I41003371
sa(dp593
g2
VPG-13
p594
sg4
I123
sg5
VRock of Ages
p595
sg7
g8
(S'\x07\xdc\x06\x0f\x00\x00\x00\x00\x00\x00'
p596
tp597
Rp598
sg12
I59418613
sg13
I20900000
sg14
F75.0
sg15
VWarner Bros. (New Line)
p599
sg17
I75000000
sg18
I38518613
sa(dp600
g2
VR
p601
sg4
I105
sg5
VAbraham Lincoln: Vampire Hunter
p602
sg7
g8
(S'\x07\xdc\x06\x16\x00\x00\x00\x00\x00\x00'
p603
tp604
Rp605
sg12
I116471580
sg13
I78952441
sg14
F69.0
sg15
VFox
p606
sg17
I69000000
sg18
I37519139
sa(dp607
g2
VR
p608
sg4
I115
sg5
VLawless
p609
sg7
g8
(S'\x07\xdc\x08\x1d\x00\x00\x00\x00\x00\x00'
p610
tp611
Rp612
sg12
I53676580
sg13
I16276453
sg14
F0.0
sg15
VWeinstein Company
p613
sg17
I26000000
sg18
I37400127
sa(dp614
g2
VPG-13
p615
sg4
I95
sg5
VThe Guilt Trip
p616
sg7
g8
(S'\x07\xdc\x0c\x13\x00\x00\x00\x00\x00\x00'
p617
tp618
Rp619
sg12
I41863726
sg13
I4729511
sg14
F40.0
sg15
VParamount
p620
sg17
I40000000
sg18
I37134215
sa(dp621
g2
VR
p622
sg4
I114
sg5
VThat's My Boy
p623
sg7
g8
(S'\x07\xdc\x06\x0f\x00\x00\x00\x00\x00\x00'
p624
tp625
Rp626
sg12
I57719093
sg13
I20788004
sg14
F70.0
sg15
VSony / Columbia
p627
sg17
I70000000
sg18
I36931089
sa(dp628
g2
VPG-13
p629
sg4
I111
sg5
VTrouble with the Curve
p630
sg7
g8
(S'\x07\xdc\t\x15\x00\x00\x00\x00\x00\x00'
p631
tp632
Rp633
sg12
I48963137
sg13
I13200000
sg14
F0.0
sg15
VWarner Bros.
p634
sg17
I0
sg18
I35763137
sa(dp635
g2
VR
p636
sg4
I102
sg5
VThe Watch
p637
sg7
g8
(S'\x07\xdc\x07\x1b\x00\x00\x00\x00\x00\x00'
p638
tp639
Rp640
sg12
I68267862
sg13
I32914862
sg14
F68.0
sg15
VFox
p641
sg17
I68000000
sg18
I35353000
sa(dp642
g2
VPG
p643
sg4
I87
sg5
VFrankenweenie
p644
sg7
g8
(S'\x07\xdc\n\x05\x00\x00\x00\x00\x00\x00'
p645
tp646
Rp647
sg12
I81491068
sg13
I46200000
sg14
F39.0
sg15
VBuena Vista
p648
sg17
I39000000
sg18
I35291068
sa(dp649
g2
VPG-13
p650
sg4
I100
sg5
VStep Up Revolution
p651
sg7
g8
(S'\x07\xdc\x07\x1b\x00\x00\x00\x00\x00\x00'
p652
tp653
Rp654
sg12
I140470746
sg13
I105396069
sg14
F33.0
sg15
VLionsgate/Summit
p655
sg17
I33000000
sg18
I35074677
sa(dp656
g2
VPG-13
p657
sg4
I129
sg5
VTyler Perry's Good Deeds
p658
sg7
g8
(S'\x07\xdc\x02\x18\x00\x00\x00\x00\x00\x00'
p659
tp660
Rp661
sg12
I35578791
sg13
I553000
sg14
F0.0
sg15
VLionsgate
p662
sg17
I0
sg18
I35025791
sa(dp663
g2
VG
p664
sg4
I90
sg5
VMonsters, Inc.
p665
sg7
g8
(S'\x07\xdc\x0c\x13\x00\x00\x00\x00\x00\x00'
p666
tp667
Rp668
sg12
I293316256
sg13
I259273250
sg14
F0.0
sg15
VBuena Vista
p669
sg17
I115000000
sg18
I34043006
sa(dp670
g2
VPG
p671
sg4
I89
sg5
V2016 Obama's America
p672
sg7
g8
(S'\x07\xdc\x07\r\x00\x00\x00\x00\x00\x00'
p673
tp674
Rp675
sg12
I0
sg13
I0
sg14
F0.0
sg15
VRocky Mountain Pictures
p676
sg17
I2500000
sg18
I33449086
sa(dp677
g2
VPG-13
p678
sg4
I101
sg5
VHouse at the End of The Street
p679
sg7
g8
(S'\x07\xdc\t\x15\x00\x00\x00\x00\x00\x00'
p680
tp681
Rp682
sg12
I39462138
sg13
I7850222
sg14
F10.0
sg15
VRelativity
p683
sg17
I6900000
sg18
I31611916
sa(dp684
g2
VPG
p685
sg4
I88
sg5
VThe Pirates! Band of Misfits
p686
sg7
g8
(S'\x07\xdc\x04\x1b\x00\x00\x00\x00\x00\x00'
p687
tp688
Rp689
sg12
I123054041
sg13
I92002915
sg14
F55.0
sg15
VSony / Columbia
p690
sg17
I55000000
sg18
I31051126
sa(dp691
g2
VPG-13
p692
sg4
I118
sg5
VJoyful Noise
p693
sg7
g8
(S'\x07\xdc\x01\r\x00\x00\x00\x00\x00\x00'
p694
tp695
Rp696
sg12
I31158113
sg13
I226000
sg14
F0.0
sg15
VWarner Bros.
p697
sg17
I25000000
sg18
I30932113
sa(dp698
g2
VG
p699
sg4
I78
sg5
VChimpanzee
p700
sg7
g8
(S'\x07\xdc\x04\x14\x00\x00\x00\x00\x00\x00'
p701
tp702
Rp703
sg12
I34823764
sg13
I5851000
sg14
F0.0
sg15
VBuena Vista
p704
sg17
I0
sg18
I28972764
sa(dp705
g2
VR
p706
sg4
I124
sg5
VThe Five-Year Engagement
p707
sg7
g8
(S'\x07\xdc\x04\x1b\x00\x00\x00\x00\x00\x00'
p708
tp709
Rp710
sg12
I53909751
sg13
I25074223
sg14
F30.0
sg15
VUniversal
p711
sg17
I30000000
sg18
I28835528
sa(dp712
g2
VPG-13
p713
sg4
I105
sg5
VThe Other Son
p714
sg7
g8
(S'\x07\xdc\n\x1a\x00\x00\x00\x00\x00\x00'
p715
tp716
Rp717
sg12
I1285918
sg13
I0
sg14
F0.0
sg15
VCohen Media Group
p718
sg17
I0
sg18
I1285918
sa(dp719
g2
VR
p720
sg4
I86
sg5
VFor a Good Time, Call...
p721
sg7
g8
(S'\x07\xdc\x08\x1f\x00\x00\x00\x00\x00\x00'
p722
tp723
Rp724
sg12
I1251749
sg13
I0
sg14
F0.0
sg15
VFocus Features
p725
sg17
I850000
sg18
I1251749
sa(dp726
g2
VR
p727
sg4
I116
sg5
VTake This Waltz
p728
sg7
g8
(S'\x07\xdc\x06\x1d\x00\x00\x00\x00\x00\x00'
p729
tp730
Rp731
sg12
I1239692
sg13
I0
sg14
F0.0
sg15
VMagnolia
p732
sg17
I0
sg18
I1239692
sa(dp733
g2
VUnrated
p734
sg4
I146
sg5
VCocktail
p735
sg7
g8
(S'\x07\xdc\x07\r\x00\x00\x00\x00\x00\x00'
p736
tp737
Rp738
sg12
I1227789
sg13
I0
sg14
F0.0
sg15
VEros
p739
sg17
I20000000
sg18
I1227789
sa(dp740
g2
VPG
p741
sg4
I106
sg5
VBol Bachchan
p742
sg7
g8
(S'\x07\xdc\x07\x06\x00\x00\x00\x00\x00\x00'
p743
tp744
Rp745
sg12
I28775262
sg13
I27559004
sg14
F0.0
sg15
VFIP
p746
sg17
I0
sg18
I1216258
sa(dp747
g2
VPG-13
p748
sg4
I101
sg5
VWoman Thou Art Loosed!: On the 7th Day
p749
sg7
g8
(S'\x07\xdc\x04\r\x00\x00\x00\x00\x00\x00'
p750
tp751
Rp752
sg12
I0
sg13
I0
sg14
F0.0
sg15
VCodeblack Entertainment
p753
sg17
I0
sg18
I1213128
sa(dp754
g2
VR
p755
sg4
I100
sg5
VHeadhunters
p756
sg7
g8
(S'\x07\xdc\x04\x1b\x00\x00\x00\x00\x00\x00'
p757
tp758
Rp759
sg12
I15699707
sg13
I14499697
sg14
F0.0
sg15
VMagnolia
p760
sg17
I0
sg18
I1200010
sa(dp761
g2
VUnrated
p762
sg4
I140
sg5
VEk Main Aur Ekk Tu
p763
sg7
g8
(S'\x07\xdc\x02\n\x00\x00\x00\x00\x00\x00'
p764
tp765
Rp766
sg12
I1155545
sg13
I0
sg14
F0.0
sg15
VUTV Communications
p767
sg17
I0
sg18
I1155545
sa(dp768
g2
VPG
p769
sg4
I102
sg5
VCasablanca
p770
sg7
g8
(S'\x07\xdc\x03\x15\x00\x00\x00\x00\x00\x00'
p771
tp772
Rp773
sg12
I0
sg13
I0
sg14
F0.0
sg15
VWarner Bros.
p774
sg17
I950000
sg18
I1155330
sa(dp775
g2
VR
p776
sg4
I98
sg5
VThe Deep Blue Sea
p777
sg7
g8
(S'\x07\xdc\x03\x17\x00\x00\x00\x00\x00\x00'
p778
tp779
Rp780
sg12
I1126525
sg13
I0
sg14
F0.0
sg15
VMusic Box Films
p781
sg17
I0
sg18
I1126525
sa(dp782
g2
VG
p783
sg4
I83
sg5
VOogieloves In The BIG Balloon Adventure
p784
sg7
g8
(S'\x07\xdc\x08\x1d\x00\x00\x00\x00\x00\x00'
p785
tp786
Rp787
sg12
I0
sg13
I0
sg14
F20.0
sg15
VKenn Viselman Presents
p788
sg17
I12000000
sg18
I1065907
sa(dp789
g2
VR
p790
sg4
I145
sg5
VIn Darkness
p791
sg7
g8
(S'\x07\xdc\x02\n\x00\x00\x00\x00\x00\x00'
p792
tp793
Rp794
sg12
I5576725
sg13
I4535270
sg14
F0.0
sg15
VSony Classics
p795
sg17
I0
sg18
I1041455
sa(dp796
g2
VPG-13
p797
sg4
I92
sg5
VDiana Vreeland: The Eye Has to Travel
p798
sg7
g8
(S'\x07\xdc\t\x15\x00\x00\x00\x00\x00\x00'
p799
tp800
Rp801
sg12
I1017579
sg13
I0
sg14
F0.0
sg15
VSamuel Goldwyn
p802
sg17
I0
sg18
I1017579
sa(dp803
g2
VUnrated
p804
sg4
I90
sg5
VFirst Position
p805
sg7
g8
(S'\x07\xdc\x05\x04\x00\x00\x00\x00\x00\x00'
p806
tp807
Rp808
sg12
I1014071
sg13
I0
sg14
F0.0
sg15
VIFC
p809
sg17
I0
sg18
I1014071
sa(dp810
g2
VPG-13
p811
sg4
I105
sg5
VBarbara
p812
sg7
g8
(S'\x07\xdc\x0c\x15\x00\x00\x00\x00\x00\x00'
p813
tp814
Rp815
sg12
I4129250
sg13
I3115348
sg14
F0.0
sg15
VAdopt Films
p816
sg17
I0
sg18
I1013902
sa(dp817
g2
VPG-13
p818
sg4
I98
sg5
VDamsels in Distress
p819
sg7
g8
(S'\x07\xdc\x04\x06\x00\x00\x00\x00\x00\x00'
p820
tp821
Rp822
sg12
I1008455
sg13
I0
sg14
F0.0
sg15
VSony Classics
p823
sg17
I0
sg18
I1008455
sa(dp824
g2
VPG-13
p825
sg4
I97
sg5
VUnconditional
p826
sg7
g8
(S'\x07\xdc\t\x15\x00\x00\x00\x00\x00\x00'
p827
tp828
Rp829
sg12
I0
sg13
I0
sg14
F0.0
sg15
VVeracity
p830
sg17
I2000000
sg18
I1005800
sa(dp831
g2
VUnrated
p832
sg4
I86
sg5
VBurn
p833
sg7
g8
(S'\x07\xdc\x07\x18\x00\x00\x00\x00\x00\x00'
p834
tp835
Rp836
sg12
I0
sg13
I0
sg14
F0.0
sg15
VCallbox LLC
p837
sg17
I225000
sg18
I996103
sa(dp838
g2
VR
p839
sg4
I107
sg5
VRampart
p840
sg7
g8
(S'\x07\xdc\x02\n\x00\x00\x00\x00\x00\x00'
p841
tp842
Rp843
sg12
I972512
sg13
I0
sg14
F0.0
sg15
VMillennium Ent.
p844
sg17
I1200000
sg18
I972512
sa(dp845
g2
VUnrated
p846
sg4
I131
sg5
VMasquerade
p847
sg7
g8
(S'\x07\xdc\t\x15\x00\x00\x00\x00\x00\x00'
p848
tp849
Rp850
sg12
I80762596
sg13
I79839675
sg14
F0.0
sg15
VCJ Entertainment
p851
sg17
I0
sg18
I922921
sa(dp852
g2
VUnrated
p853
sg4
I99
sg5
VThe Imposter
p854
sg7
g8
(S'\x07\xdc\x07\r\x00\x00\x00\x00\x00\x00'
p855
tp856
Rp857
sg12
I1999277
sg13
I1100960
sg14
F0.0
sg15
VIndomina Media
p858
sg17
I0
sg18
I898317
sa(dp859
g2
VUnrated
p860
sg4
I104
sg5
VBill W.
p861
sg7
g8
(S'\x07\xdc\x05\x12\x00\x00\x00\x00\x00\x00'
p862
tp863
Rp864
sg12
I0
sg13
I0
sg14
F0.0
sg15
VPage 124 Productions
p865
sg17
I0
sg18
I809590
sa(dp866
g2
VPG-13
p867
sg4
I103
sg5
VDarling Companion
p868
sg7
g8
(S'\x07\xdc\x04\x14\x00\x00\x00\x00\x00\x00'
p869
tp870
Rp871
sg12
I793815
sg13
I0
sg14
F0.0
sg15
VSony Classics
p872
sg17
I0
sg18
I793815
sa(dp873
g2
VR
p874
sg4
I94
sg5
VThin Ice
p875
sg7
g8
(S'\x07\xdc\x02\x11\x00\x00\x00\x00\x00\x00'
p876
tp877
Rp878
sg12
I0
sg13
I0
sg14
F0.0
sg15
VATO Pictures
p879
sg17
I0
sg18
I790421
sa(dp880
g2
VUnrated
p881
sg4
I120
sg5
VTeri Meri Kahaani
p882
sg7
g8
(S'\x07\xdc\x06\x16\x00\x00\x00\x00\x00\x00'
p883
tp884
Rp885
sg12
I781196
sg13
I0
sg14
F0.0
sg15
VEros
p886
sg17
I0
sg18
I781196
sa(dp887
g2
VUnrated
p888
sg4
Nsg5
VMeerkats
p889
sg7
g8
(S'\x07\xdc\x05\x1a\x00\x00\x00\x00\x00\x00'
p890
tp891
Rp892
sg12
I1259616
sg13
I482021
sg14
F0.0
sg15
VNational Geographic Entertainment
p893
sg17
I0
sg18
I777595
sa(dp894
g2
VUnrated
p895
sg4
I130
sg5
VRowdy Rathore
p896
sg7
g8
(S'\x07\xdc\x06\x01\x00\x00\x00\x00\x00\x00'
p897
tp898
Rp899
sg12
I29342463
sg13
I28565090
sg14
F0.0
sg15
VUTV Communications
p900
sg17
I0
sg18
I777373
sa(dp901
g2
VUnrated
p902
sg4
I145
sg5
VSon of Sardaar
p903
sg7
g8
(S'\x07\xdc\x0b\r\x00\x00\x00\x00\x00\x00'
p904
tp905
Rp906
sg12
I771789
sg13
I0
sg14
F0.0
sg15
VEros
p907
sg17
I0
sg18
I771789
sa(dp908
g2
VR
p909
sg4
I108
sg5
VCosmopolis
p910
sg7
g8
(S'\x07\xdc\x08\x11\x00\x00\x00\x00\x00\x00'
p911
tp912
Rp913
sg12
I6063556
sg13
I5300000
sg14
F0.0
sg15
VEntertainment One
p914
sg17
I20500000
sg18
I763556
sa(dp915
g2
VR
p916
sg4
I122
sg5
VCoriolanus
p917
sg7
g8
(S'\x07\xdc\x01\x14\x00\x00\x00\x00\x00\x00'
p918
tp919
Rp920
sg12
I1072602
sg13
I315407
sg14
F0.0
sg15
VWeinstein Company
p921
sg17
I0
sg18
I757195
sa(dp922
g2
VR
p923
sg4
I124
sg5
VOn the Road
p924
sg7
g8
(S'\x07\xdc\x0c\x15\x00\x00\x00\x00\x00\x00'
p925
tp926
Rp927
sg12
I8784318
sg13
I8040022
sg14
F0.0
sg15
VIFC
p928
sg17
I25000000
sg18
I744296
sa(dp929
g2
VUnrated
p930
sg4
I157
sg5
VAgent Vinod
p931
sg7
g8
(S'\x07\xdc\x03\x17\x00\x00\x00\x00\x00\x00'
p932
tp933
Rp934
sg12
I698210
sg13
I0
sg14
F0.0
sg15
VEros
p935
sg17
I0
sg18
I698210
sa(dp936
g2
VR
p937
sg4
I107
sg5
VThe Paperboy
p938
sg7
g8
(S'\x07\xdc\n\x05\x00\x00\x00\x00\x00\x00'
p939
tp940
Rp941
sg12
I1353868
sg13
I660582
sg14
F0.0
sg15
VMillennium Ent.
p942
sg17
I12500000
sg18
I693286
sa(dp943
g2
VUnrated
p944
sg4
I135
sg5
VThe Thieves
p945
sg7
g8
(S'\x07\xdc\n\x0c\x00\x00\x00\x00\x00\x00'
p946
tp947
Rp948
sg12
I83519699
sg13
I82833860
sg14
F0.0
sg15
VWell Go USA
p949
sg17
I0
sg18
I685839
sa(dp950
g2
VUnrated
p951
sg4
Nsg5
VStudent of the Year
p952
sg7
g8
(S'\x07\xdc\n\x13\x00\x00\x00\x00\x00\x00'
p953
tp954
Rp955
sg12
I670086
sg13
I0
sg14
F0.0
sg15
VEros
p956
sg17
I0
sg18
I670086
sa(dp957
g2
VG
p958
sg4
I100
sg5
VThe Polar Express
p959
sg7
g8
(S'\x07\xdc\x0b\x15\x00\x00\x00\x00\x00\x00'
p960
tp961
Rp962
sg12
I0
sg13
I0
sg14
F0.0
sg15
VWarner Bros.
p963
sg17
I165000000
sg18
I669289
sa(dp964
g2
VUnrated
p965
sg4
I115
sg5
VHoly Motors
p966
sg7
g8
(S'\x07\xdc\n\x11\x00\x00\x00\x00\x00\x00'
p967
tp968
Rp969
sg12
I641100
sg13
I0
sg14
F0.0
sg15
VIndomina Media
p970
sg17
I0
sg18
I641100
sa(dp971
g2
VR
p972
sg4
I91
sg5
V2 Days in New York
p973
sg7
g8
(S'\x07\xdc\x08\n\x00\x00\x00\x00\x00\x00'
p974
tp975
Rp976
sg12
I1653792
sg13
I1020582
sg14
F0.0
sg15
VMagnolia
p977
sg17
I8000000
sg18
I633210
sa(dp978
g2
VR
p979
sg4
I112
sg5
VNot Fade Away
p980
sg7
g8
(S'\x07\xdc\x0c\x15\x00\x00\x00\x00\x00\x00'
p981
tp982
Rp983
sg12
I0
sg13
I0
sg14
F20.0
sg15
VParamount Vantage
p984
sg17
I20000000
sg18
I610792
sa(dp985
g2
VUnrated
p986
sg4
I140
sg5
VHeroine
p987
sg7
g8
(S'\x07\xdc\t\x15\x00\x00\x00\x00\x00\x00'
p988
tp989
Rp990
sg12
I8036853
sg13
I7438185
sg14
F0.0
sg15
VUTV Communications
p991
sg17
I0
sg18
I598668
sa(dp992
g2
VPG-13
p993
sg4
I106
sg5
VBlue Like Jazz
p994
sg7
g8
(S'\x07\xdc\x04\r\x00\x00\x00\x00\x00\x00'
p995
tp996
Rp997
sg12
I0
sg13
I0
sg14
F0.0
sg15
VRoadside Attractions
p998
sg17
I1200000
sg18
I595018
sa(dp999
g2
VR
p1000
sg4
I96
sg5
VPeace, Love and Misunderstanding
p1001
sg7
g8
(S'\x07\xdc\x06\x08\x00\x00\x00\x00\x00\x00'
p1002
tp1003
Rp1004
sg12
I590700
sg13
I0
sg14
F0.0
sg15
VIFC
p1005
sg17
I0
sg18
I590700
sa(dp1006
g2
VPG
p1007
sg4
Nsg5
VThunderstruck
p1008
sg7
g8
(S'\x07\xdc\x08\x18\x00\x00\x00\x00\x00\x00'
p1009
tp1010
Rp1011
sg12
I0
sg13
I0
sg14
F0.0
sg15
VWarner Bros.
p1012
sg17
I0
sg18
I587211
sa(dp1013
g2
VR
p1014
sg4
I118
sg5
VW.E.
p1015
sg7
g8
(S'\x07\xdc\x02\x03\x00\x00\x00\x00\x00\x00'
p1016
tp1017
Rp1018
sg12
I868439
sg13
I284984
sg14
F0.0
sg15
VWeinstein Company
p1019
sg17
I15000000
sg18
I583455
sa(dp1020
g2
VPG-13
p1021
sg4
I113
sg5
VUndefeated
p1022
sg7
g8
(S'\x07\xdc\x02\x11\x00\x00\x00\x00\x00\x00'
p1023
tp1024
Rp1025
sg12
I562218
sg13
I0
sg14
F0.0
sg15
VWeinstein Company
p1026
sg17
I0
sg18
I562218
sa(dp1027
g2
VUnrated
p1028
sg4
I142
sg5
VVicky Donor
p1029
sg7
g8
(S'\x07\xdc\x04\x14\x00\x00\x00\x00\x00\x00'
p1030
tp1031
Rp1032
sg12
I549001
sg13
I0
sg14
F0.0
sg15
VEros
p1033
sg17
I0
sg18
I549001
sa(dp1034
g2
VUnrated
p1035
sg4
I105
sg5
VWe Have a Pope
p1036
sg7
g8
(S'\x07\xdc\x04\x06\x00\x00\x00\x00\x00\x00'
p1037
tp1038
Rp1039
sg12
I16157875
sg13
I15609760
sg14
F0.0
sg15
VIFC
p1040
sg17
I0
sg18
I548115
sa(dp1041
g2
VR
p1042
sg4
I86
sg5
VBeing Flynn
p1043
sg7
g8
(S'\x07\xdc\x03\x02\x00\x00\x00\x00\x00\x00'
p1044
tp1045
Rp1046
sg12
I540152
sg13
I0
sg14
F0.0
sg15
VFocus Features
p1047
sg17
I0
sg18
I540152
sa(dp1048
g2
VR
p1049
sg4
I90
sg5
VAi Weiwei: Never Sorry
p1050
sg7
g8
(S'\x07\xdc\x07\x1b\x00\x00\x00\x00\x00\x00'
p1051
tp1052
Rp1053
sg12
I534100
sg13
I0
sg14
F0.0
sg15
VIFC
p1054
sg17
I0
sg18
I534100
sa(dp1055
g2
VPG-13
p1056
sg4
I110
sg5
VWhere Do We Go Now?
p1057
sg7
g8
(S'\x07\xdc\x05\x0b\x00\x00\x00\x00\x00\x00'
p1058
tp1059
Rp1060
sg12
I531997
sg13
I0
sg14
F0.0
sg15
VSony Classics
p1061
sg17
I6700000
sg18
I531997
sa(dp1062
g2
VUnrated
p1063
sg4
I108
sg5
VShut Up and Play the Hits
p1064
sg7
g8
(S'\x07\xdc\x07\x12\x00\x00\x00\x00\x00\x00'
p1065
tp1066
Rp1067
sg12
I0
sg13
I0
sg14
F0.0
sg15
VOscilloscope Pictures
p1068
sg17
I0
sg18
I510334
sa(dp1069
g2
VPG-13
p1070
sg4
I108
sg5
VDelicacy
p1071
sg7
g8
(S'\x07\xdc\x03\x10\x00\x00\x00\x00\x00\x00'
p1072
tp1073
Rp1074
sg12
I9696204
sg13
I9197620
sg14
F0.0
sg15
VCohen Media Group
p1075
sg17
I0
sg18
I498584
sa(dp1076
g2
VUnrated
p1077
sg4
I97
sg5
VThe Flat
p1078
sg7
g8
(S'\x07\xdc\n\x13\x00\x00\x00\x00\x00\x00'
p1079
tp1080
Rp1081
sg12
I0
sg13
I0
sg14
F0.0
sg15
VIFC
p1082
sg17
I0
sg18
I471842
sa(dp1083
g2
VR
p1084
sg4
I91
sg5
VBachelorette
p1085
sg7
g8
(S'\x07\xdc\t\x07\x00\x00\x00\x00\x00\x00'
p1086
tp1087
Rp1088
sg12
I11947954
sg13
I11500000
sg14
F0.0
sg15
VRadius-TWC
p1089
sg17
I3000000
sg18
I447954
sa(dp1090
g2
VUnrated
p1091
sg4
I139
sg5
VFerrari Ki Sawaari
p1092
sg7
g8
(S'\x07\xdc\x06\x0f\x00\x00\x00\x00\x00\x00'
p1093
tp1094
Rp1095
sg12
I434107
sg13
I0
sg14
F0.0
sg15
VEros
p1096
sg17
I0
sg18
I434107
sa(dp1097
g2
VR
p1098
sg4
I105
sg5
VSeeking Justice
p1099
sg7
g8
(S'\x07\xdc\x03\x10\x00\x00\x00\x00\x00\x00'
p1100
tp1101
Rp1102
sg12
I12355798
sg13
I11944052
sg14
F0.0
sg15
VAnchor Bay Films
p1103
sg17
I17000000
sg18
I411746
sa(dp1104
g2
VR
p1105
sg4
I85
sg5
VSound of My Voice
p1106
sg7
g8
(S'\x07\xdc\x04\x1b\x00\x00\x00\x00\x00\x00'
p1107
tp1108
Rp1109
sg12
I408015
sg13
I0
sg14
F0.0
sg15
VFox Searchlight
p1110
sg17
I0
sg18
I408015
sa(dp1111
g2
VUnrated
p1112
sg4
I93
sg5
VDetropia
p1113
sg7
g8
(S'\x07\xdc\t\x07\x00\x00\x00\x00\x00\x00'
p1114
tp1115
Rp1116
sg12
I0
sg13
I0
sg14
F0.0
sg15
VLoki Films
p1117
sg17
I0
sg18
I390024
sa(dp1118
g2
VUnrated
p1119
sg4
I107
sg5
VThe Well-Digger's Daughter
p1120
sg7
g8
(S'\x07\xdc\x07\x14\x00\x00\x00\x00\x00\x00'
p1121
tp1122
Rp1123
sg12
I12626424
sg13
I12240056
sg14
F0.0
sg15
VKino Lorber
p1124
sg17
I0
sg18
I386368
sa(dp1125
g2
VUnrated
p1126
sg4
I141
sg5
VKhiladi 786
p1127
sg7
g8
(S'\x07\xdc\x0c\x07\x00\x00\x00\x00\x00\x00'
p1128
tp1129
Rp1130
sg12
I379466
sg13
I0
sg14
F0.0
sg15
VEros
p1131
sg17
I0
sg18
I379466
sa(dp1132
g2
VR
p1133
sg4
I85
sg5
VSmashed
p1134
sg7
g8
(S'\x07\xdc\n\x0c\x00\x00\x00\x00\x00\x00'
p1135
tp1136
Rp1137
sg12
I376597
sg13
I0
sg14
F0.0
sg15
VSony Classics
p1138
sg17
I500000
sg18
I376597
sa(dp1139
g2
VR
p1140
sg4
I83
sg5
VPiranha 3DD
p1141
sg7
g8
(S'\x07\xdc\x06\x01\x00\x00\x00\x00\x00\x00'
p1142
tp1143
Rp1144
sg12
I8493728
sg13
I8117216
sg14
F0.0
sg15
VWeinstein / Dimension
p1145
sg17
I5000000
sg18
I376512
sa(dp1146
g2
VR
p1147
sg4
I90
sg5
VThe Oranges
p1148
sg7
g8
(S'\x07\xdc\n\x05\x00\x00\x00\x00\x00\x00'
p1149
tp1150
Rp1151
sg12
I366377
sg13
I0
sg14
F0.0
sg15
VATO Pictures
p1152
sg17
I0
sg18
I366377
sa(dp1153
g2
VR
p1154
sg4
I145
sg5
VThe Lady
p1155
sg7
g8
(S'\x07\xdc\x04\r\x00\x00\x00\x00\x00\x00'
p1156
tp1157
Rp1158
sg12
I3759582
sg13
I3404191
sg14
F0.0
sg15
VCohen Media Group
p1159
sg17
I0
sg18
I355391
sa(dp1160
g2
VR
p1161
sg4
I106
sg5
VBranded
p1162
sg7
g8
(S'\x07\xdc\t\x07\x00\x00\x00\x00\x00\x00'
p1163
tp1164
Rp1165
sg12
I3754070
sg13
I3400557
sg14
F0.0
sg15
VRoadside Attractions
p1166
sg17
I0
sg18
I353513
sa(dp1167
g2
VUnrated
p1168
sg4
I94
sg5
VChico & Rita
p1169
sg7
g8
(S'\x07\xdc\x02\n\x00\x00\x00\x00\x00\x00'
p1170
tp1171
Rp1172
sg12
I2234457
sg13
I1883933
sg14
F0.0
sg15
VGKIDS
p1173
sg17
I0
sg18
I350524
sa(dp1174
g2
VUnrated
p1175
sg4
I125
sg5
VA Werewolf Boy
p1176
sg7
g8
(S'\x07\xdc\x0b\x1e\x00\x00\x00\x00\x00\x00'
p1177
tp1178
Rp1179
sg12
I41679300
sg13
I41336378
sg14
F0.0
sg15
VCJ Entertainment
p1180
sg17
I0
sg18
I342922
sa(dp1181
g2
VR
p1182
sg4
I121
sg5
VRed Hook Summer
p1183
sg7
g8
(S'\x07\xdc\x08\n\x00\x00\x00\x00\x00\x00'
p1184
tp1185
Rp1186
sg12
I0
sg13
I0
sg14
F0.0
sg15
VVariance Films
p1187
sg17
I0
sg18
I338803
sa(dp1188
g2
VPG-13
p1189
sg4
I97
sg5
VLiberal Arts
p1190
sg7
g8
(S'\x07\xdc\t\x0e\x00\x00\x00\x00\x00\x00'
p1191
tp1192
Rp1193
sg12
I327345
sg13
I0
sg14
F0.0
sg15
VIFC
p1194
sg17
I0
sg18
I327345
sa(dp1195
g2
VUnrated
p1196
sg4
I119
sg5
VThe Central Park Five
p1197
sg7
g8
(S'\x07\xdc\x0b\x17\x00\x00\x00\x00\x00\x00'
p1198
tp1199
Rp1200
sg12
I0
sg13
I0
sg14
F0.0
sg15
VIFC
p1201
sg17
I0
sg18
I325653
sa(dp1202
g2
VR
p1203
sg4
I90
sg5
VCompliance
p1204
sg7
g8
(S'\x07\xdc\x08\x11\x00\x00\x00\x00\x00\x00'
p1205
tp1206
Rp1207
sg12
I319285
sg13
I0
sg14
F0.0
sg15
VMagnolia
p1208
sg17
I270000
sg18
I319285
sa(dp1209
g2
VUnrated
p1210
sg4
I90
sg5
VThe Salt of Life
p1211
sg7
g8
(S'\x07\xdc\x03\x02\x00\x00\x00\x00\x00\x00'
p1212
tp1213
Rp1214
sg12
I1492653
sg13
I1175248
sg14
F0.0
sg15
VZeitgeist
p1215
sg17
I0
sg18
I317405
sa(dp1216
g2
VUnrated
p1217
sg4
I146
sg5
VBack to 1942
p1218
sg7
g8
(S'\x07\xdc\x0b\x1e\x00\x00\x00\x00\x00\x00'
p1219
tp1220
Rp1221
sg12
I312954
sg13
I0
sg14
F0.0
sg15
VChina Lion
p1222
sg17
I33000000
sg18
I312954
sa(dp1223
g2
VR
p1224
sg4
I141
sg5
VThe Flowers of War
p1225
sg7
g8
(S'\x07\xdc\x01\x14\x00\x00\x00\x00\x00\x00'
p1226
tp1227
Rp1228
sg12
I311434
sg13
I0
sg14
F0.0
sg15
VWrekin Hill
p1229
sg17
I94000000
sg18
I311434
sa(dp1230
g2
VR
p1231
sg4
I147
sg5
VWest of Memphis
p1232
sg7
g8
(S'\x07\xdc\x0c\x19\x00\x00\x00\x00\x00\x00'
p1233
tp1234
Rp1235
sg12
I0
sg13
I0
sg14
F0.0
sg15
VSony Classics
p1236
sg17
I0
sg18
I310154
sa(dp1237
g2
VPG
p1238
sg4
I70
sg5
VA Cat in Paris
p1239
sg7
g8
(S'\x07\xdc\x06\x01\x00\x00\x00\x00\x00\x00'
p1240
tp1241
Rp1242
sg12
I0
sg13
I0
sg14
F0.0
sg15
VGKIDS
p1243
sg17
I0
sg18
I309973
sa(dp1244
g2
VUnrated
p1245
sg4
Nsg5
VLove
p1246
sg7
g8
(S'\x07\xdc\x02\x11\x00\x00\x00\x00\x00\x00'
p1247
tp1248
Rp1249
sg12
I0
sg13
I0
sg14
F0.0
sg15
VChina Lion
p1250
sg17
I0
sg18
I309200
sa(dp1251
g2
VR
p1252
sg4
I96
sg5
VStolen
p1253
sg7
g8
(S'\x07\xdc\t\x0e\x00\x00\x00\x00\x00\x00'
p1254
tp1255
Rp1256
sg12
I2106557
sg13
I1802239
sg14
F0.0
sg15
VMillennium Ent.
p1257
sg17
I35000000
sg18
I304318
sa(dp1258
g2
VR
p1259
sg4
I113
sg5
VSomething From Nothing: The Art of Rap
p1260
sg7
g8
(S'\x07\xdc\x06\x0f\x00\x00\x00\x00\x00\x00'
p1261
tp1262
Rp1263
sg12
I288312
sg13
I0
sg14
F0.0
sg15
VIndomina Media
p1264
sg17
I0
sg18
I288312
sa(dp1265
g2
VUnrated
p1266
sg4
I98
sg5
VBully
p1267
sg7
g8
(S'\x07\xdc\x03\x1e\x00\x00\x00\x00\x00\x00'
p1268
tp1269
Rp1270
sg12
I3677246
sg13
I3398044
sg14
F0.0
sg15
VWeinstein Company
p1271
sg17
I0
sg18
I279202
sa(dp1272
g2
VUnrated
p1273
sg4
I112
sg5
VLove in the Buff
p1274
sg7
g8
(S'\x07\xdc\x03\x1e\x00\x00\x00\x00\x00\x00'
p1275
tp1276
Rp1277
sg12
I256451
sg13
I0
sg14
F0.0
sg15
VChina Lion
p1278
sg17
I0
sg18
I256451
sa(dp1279
g2
VUnrated
p1280
sg4
I87
sg5
VBoy
p1281
sg7
g8
(S'\x07\xdc\x03\x02\x00\x00\x00\x00\x00\x00'
p1282
tp1283
Rp1284
sg12
I8621535
sg13
I8365324
sg14
F0.0
sg15
VPaladin/Unison
p1285
sg17
I0
sg18
I256211
sa(dp1286
g2
VPG-13
p1287
sg4
I93
sg5
VChicken with Plums
p1288
sg7
g8
(S'\x07\xdc\x08\x11\x00\x00\x00\x00\x00\x00'
p1289
tp1290
Rp1291
sg12
I1428291
sg13
I1174417
sg14
F0.0
sg15
VSony Classics
p1292
sg17
I0
sg18
I253874
sa(dp1293
g2
VR
p1294
sg4
I89
sg5
VLola Versus
p1295
sg7
g8
(S'\x07\xdc\x06\x08\x00\x00\x00\x00\x00\x00'
p1296
tp1297
Rp1298
sg12
I252603
sg13
I0
sg14
F0.0
sg15
VFox Searchlight
p1299
sg17
I0
sg18
I252603
sa(dp1300
g2
VUnrated
p1301
sg4
I101
sg5
VKeep the Lights On
p1302
sg7
g8
(S'\x07\xdc\t\x07\x00\x00\x00\x00\x00\x00'
p1303
tp1304
Rp1305
sg12
I246112
sg13
I0
sg14
F0.0
sg15
VMusic Box Films
p1306
sg17
I0
sg18
I246112
sa(dp1307
g2
VUnrated
p1308
sg4
I81
sg5
VThe Waiting Room
p1309
sg7
g8
(S'\x07\xdc\t\x1a\x00\x00\x00\x00\x00\x00'
p1310
tp1311
Rp1312
sg12
I0
sg13
I0
sg14
F0.0
sg15
VInternational Film Circuit
p1313
sg17
I0
sg18
I244951
sa(dp1314
g2
VPG-13
p1315
sg4
I102
sg5
VMy Uncle Rafael
p1316
sg7
g8
(S'\x07\xdc\t\x15\x00\x00\x00\x00\x00\x00'
p1317
tp1318
Rp1319
sg12
I0
sg13
I0
sg14
F0.0
sg15
VRocky Mountain Pictures
p1320
sg17
I1300000
sg18
I243616
sa(dp1321
g2
VUnrated
p1322
sg4
I97
sg5
VGerhard Richter Painting
p1323
sg7
g8
(S'\x07\xdc\x03\x0e\x00\x00\x00\x00\x00\x00'
p1324
tp1325
Rp1326
sg12
I0
sg13
I0
sg14
F0.0
sg15
VKino Lorber
p1327
sg17
I0
sg18
I242646
sa(dp1328
g2
VR
p1329
sg4
I108
sg5
VTrishna
p1330
sg7
g8
(S'\x07\xdc\x07\r\x00\x00\x00\x00\x00\x00'
p1331
tp1332
Rp1333
sg12
I240381
sg13
I0
sg14
F0.0
sg15
VIFC
p1334
sg17
I0
sg18
I240381
sa(dp1335
g2
VR
p1336
sg4
I97
sg5
VMiddle of Nowhere
p1337
sg7
g8
(S'\x07\xdc\n\x0c\x00\x00\x00\x00\x00\x00'
p1338
tp1339
Rp1340
sg12
I0
sg13
I0
sg14
F200000.0
sg15
VAFFRM
p1341
sg17
I200000
sg18
I236806
sa(dp1342
g2
VUnrated
p1343
sg4
I109
sg5
VElena
p1344
sg7
g8
(S'\x07\xdc\x05\x10\x00\x00\x00\x00\x00\x00'
p1345
tp1346
Rp1347
sg12
I233380
sg13
I0
sg14
F0.0
sg15
VZeitgeist
p1348
sg17
I0
sg18
I233380
sa(dp1349
g2
VUnrated
p1350
sg4
I123
sg5
VTezz
p1351
sg7
g8
(S'\x07\xdc\x04\x1b\x00\x00\x00\x00\x00\x00'
p1352
tp1353
Rp1354
sg12
I229931
sg13
I0
sg14
F0.0
sg15
VEros
p1355
sg17
I0
sg18
I229931
sa(dp1356
g2
VUnrated
p1357
sg4
I122
sg5
VThe Viral Factor
p1358
sg7
g8
(S'\x07\xdc\x01\x14\x00\x00\x00\x00\x00\x00'
p1359
tp1360
Rp1361
sg12
I220496
sg13
I0
sg14
F0.0
sg15
VChina Lion
p1362
sg17
I0
sg18
I220496
sa(dp1363
g2
VPG
p1364
sg4
I101
sg5
VBrooklyn Castle
p1365
sg7
g8
(S'\x07\xdc\n\x13\x00\x00\x00\x00\x00\x00'
p1366
tp1367
Rp1368
sg12
I0
sg13
I0
sg14
F0.0
sg15
VProducers Distribution Agency
p1369
sg17
I0
sg18
I219407
sa(dp1370
g2
VPG
p1371
sg4
I87
sg5
VNeil Young Journeys
p1372
sg7
g8
(S'\x07\xdc\x06\x1d\x00\x00\x00\x00\x00\x00'
p1373
tp1374
Rp1375
sg12
I215026
sg13
I0
sg14
F0.0
sg15
VSony Classics
p1376
sg17
I0
sg18
I215026
sa(dp1377
g2
VUnrated
p1378
sg4
I160
sg5
VThaandavam
p1379
sg7
g8
(S'\x07\xdc\t\x1c\x00\x00\x00\x00\x00\x00'
p1380
tp1381
Rp1382
sg12
I0
sg13
I0
sg14
F0.0
sg15
VUTV Communications
p1383
sg17
I0
sg18
I213476
sa(dp1384
g2
VPG-13
p1385
sg4
I94
sg5
VTai Chi Zero
p1386
sg7
g8
(S'\x07\xdc\n\x13\x00\x00\x00\x00\x00\x00'
p1387
tp1388
Rp1389
sg12
I212094
sg13
I0
sg14
F0.0
sg15
VVariance Films
p1390
sg17
I0
sg18
I212094
sa(dp1391
g2
VUnrated
p1392
sg4
I127
sg5
VPolisse
p1393
sg7
g8
(S'\x07\xdc\x05\x12\x00\x00\x00\x00\x00\x00'
p1394
tp1395
Rp1396
sg12
I20374201
sg13
I20162761
sg14
F0.0
sg15
VIFC
p1397
sg17
I0
sg18
I211440
sa(dp1398
g2
VUnrated
p1399
sg4
I94
sg5
VSomewhere Between
p1400
sg7
g8
(S'\x07\xdc\x08\x18\x00\x00\x00\x00\x00\x00'
p1401
tp1402
Rp1403
sg12
I0
sg13
I0
sg14
F0.0
sg15
VLong Shot Factory
p1404
sg17
I0
sg18
I210975
sa(dp1405
g2
VUnrated
p1406
sg4
Nsg5
VThe House I Live In
p1407
sg7
g8
(S'\x07\xdc\n\x05\x00\x00\x00\x00\x00\x00'
p1408
tp1409
Rp1410
sg12
I210752
sg13
I0
sg14
F0.0
sg15
VAbramorama
p1411
sg17
I0
sg18
I210752
sa.